; Function Attrs: nounwind uwtable
define internal void @SDL_MouseDoubleClickRadiusChanged(ptr noundef writeonly captures(none) initializes((224, 228)) %0, ptr readnone captures(none) %1, ptr readnone captures(none) %2, ptr noundef %3) #0 {
  %.not = icmp eq ptr %3, null
  br i1 %.not, label %9, label %5

5:                                                ; preds = %4
  %6 = load i8, ptr %3, align 1
  %.not6 = icmp eq i8 %6, 0
  br i1 %.not6, label %9, label %7

7:                                                ; preds = %5
  %8 = tail call i32 @SDL_atoi_REAL(ptr noundef nonnull %3) #13
  br label %9

9:                                                ; preds = %4, %5, %7
  %.sink = phi i32 [ %8, %7 ], [ 32, %5 ], [ 32, %4 ]
  %10 = getelementptr inbounds nuw i8, ptr %0, i64 224
  store i32 %.sink, ptr %10, align 8
  ret void
}